target datalayout = "e-m:e-p270:32:32-p271:32:32-p272:64:64-i64:64-i128:128-f80:128-n8:16:32:64-S128"
target triple = "x86_64-pc-linux-gnu"

; Function Attrs: nounwind uwtable
define void @ff_line_noise_avg_c(ptr noundef %0, ptr noundef %1, i32 noundef %2, ptr noundef %3) #0 {
  %5 = alloca ptr, align 8
  %6 = alloca ptr, align 8
  %7 = alloca i32, align 4
  %8 = alloca ptr, align 8
  %9 = alloca i32, align 4
  %10 = alloca ptr, align 8
  %11 = alloca i32, align 4
  store ptr %0, ptr %5, align 8, !tbaa !4
  store ptr %1, ptr %6, align 8, !tbaa !4
  store i32 %2, ptr %7, align 4, !tbaa !9
  store ptr %3, ptr %8, align 8, !tbaa !14
  call void @llvm.lifetime.start.p0(i64 4, ptr %9) #9
  call void @llvm.lifetime.start.p0(i64 8, ptr %10) #9
  %12 = load ptr, ptr %6, align 8, !tbaa !4
  store ptr %12, ptr %10, align 8, !tbaa !4
  store i32 0, ptr %9, align 4, !tbaa !9
  br label %13

13:                                               ; preds = %65, %4
  %14 = load i32, ptr %9, align 4, !tbaa !9
  %15 = load i32, ptr %7, align 4, !tbaa !9
  %16 = icmp slt i32 %14, %15
  br i1 %16, label %17, label %68

17:                                               ; preds = %13
  call void @llvm.lifetime.start.p0(i64 4, ptr %11) #9
  %18 = load ptr, ptr %8, align 8, !tbaa !14
  %19 = getelementptr inbounds ptr, ptr %18, i64 0
  %20 = load ptr, ptr %19, align 8, !tbaa !4
  %21 = load i32, ptr %9, align 4, !tbaa !9
  %22 = sext i32 %21 to i64
  %23 = getelementptr inbounds i8, ptr %20, i64 %22
  %24 = load i8, ptr %23, align 1, !tbaa !11
  %25 = sext i8 %24 to i32
  %26 = load ptr, ptr %8, align 8, !tbaa !14
  %27 = getelementptr inbounds ptr, ptr %26, i64 1
  %28 = load ptr, ptr %27, align 8, !tbaa !4
  %29 = load i32, ptr %9, align 4, !tbaa !9
  %30 = sext i32 %29 to i64
  %31 = getelementptr inbounds i8, ptr %28, i64 %30
  %32 = load i8, ptr %31, align 1, !tbaa !11
  %33 = sext i8 %32 to i32
  %34 = add nsw i32 %25, %33
  %35 = load ptr, ptr %8, align 8, !tbaa !14
  %36 = getelementptr inbounds ptr, ptr %35, i64 2
  %37 = load ptr, ptr %36, align 8, !tbaa !4
  %38 = load i32, ptr %9, align 4, !tbaa !9
  %39 = sext i32 %38 to i64
  %40 = getelementptr inbounds i8, ptr %37, i64 %39
  %41 = load i8, ptr %40, align 1, !tbaa !11
  %42 = sext i8 %41 to i32
  %43 = add nsw i32 %34, %42
  store i32 %43, ptr %11, align 4, !tbaa !9
  %44 = load ptr, ptr %10, align 8, !tbaa !4
  %45 = load i32, ptr %9, align 4, !tbaa !9
  %46 = sext i32 %45 to i64
  %47 = getelementptr inbounds i8, ptr %44, i64 %46
  %48 = load i8, ptr %47, align 1, !tbaa !11
  %49 = sext i8 %48 to i32
  %50 = load i32, ptr %11, align 4, !tbaa !9
  %51 = load ptr, ptr %10, align 8, !tbaa !4
  %52 = load i32, ptr %9, align 4, !tbaa !9
  %53 = sext i32 %52 to i64
  %54 = getelementptr inbounds i8, ptr %51, i64 %53
  %55 = load i8, ptr %54, align 1, !tbaa !11
  %56 = sext i8 %55 to i32
  %57 = mul nsw i32 %50, %56
  %58 = ashr i32 %57, 7
  %59 = add nsw i32 %49, %58
  %60 = trunc i32 %59 to i8
  %61 = load ptr, ptr %5, align 8, !tbaa !4
  %62 = load i32, ptr %9, align 4, !tbaa !9
  %63 = sext i32 %62 to i64
  %64 = getelementptr inbounds i8, ptr %61, i64 %63
  store i8 %60, ptr %64, align 1, !tbaa !11
  call void @llvm.lifetime.end.p0(i64 4, ptr %11) #9
  br label %65

65:                                               ; preds = %17
  %66 = load i32, ptr %9, align 4, !tbaa !9
  %67 = add nsw i32 %66, 1
  store i32 %67, ptr %9, align 4, !tbaa !9
  br label %13, !llvm.loop !17

68:                                               ; preds = %13
  call void @llvm.lifetime.end.p0(i64 8, ptr %10) #9
  call void @llvm.lifetime.end.p0(i64 4, ptr %9) #9
  ret void
}