; Function Attrs: nofree norecurse nosync nounwind memory(read, argmem: readwrite, inaccessiblemem: none) uwtable
define void @ff_line_noise_avg_c(ptr noundef writeonly captures(none) %0, ptr noundef readonly captures(none) %1, i32 noundef %2, ptr noundef readonly captures(none) %3) #2 {
  %5 = icmp sgt i32 %2, 0
  br i1 %5, label %.lr.ph, label %._crit_edge

.lr.ph:                                           ; preds = %4
  %6 = getelementptr inbounds nuw i8, ptr %3, i64 8
  %7 = getelementptr inbounds nuw i8, ptr %3, i64 16
  %wide.trip.count = zext nneg i32 %2 to i64
  br label %8

8:                                                ; preds = %.lr.ph, %8
  %indvars.iv = phi i64 [ 0, %.lr.ph ], [ %indvars.iv.next, %8 ]
  %9 = load ptr, ptr %3, align 8, !tbaa !9
  %10 = getelementptr inbounds nuw i8, ptr %9, i64 %indvars.iv
  %11 = load i8, ptr %10, align 1, !tbaa !4
  %12 = sext i8 %11 to i16
  %13 = load ptr, ptr %6, align 8, !tbaa !9
  %14 = getelementptr inbounds nuw i8, ptr %13, i64 %indvars.iv
  %15 = load i8, ptr %14, align 1, !tbaa !4
  %16 = sext i8 %15 to i16
  %17 = add nsw i16 %16, %12
  %18 = load ptr, ptr %7, align 8, !tbaa !9
  %19 = getelementptr inbounds nuw i8, ptr %18, i64 %indvars.iv
  %20 = load i8, ptr %19, align 1, !tbaa !4
  %21 = sext i8 %20 to i16
  %22 = add nsw i16 %17, %21
  %23 = getelementptr inbounds nuw i8, ptr %1, i64 %indvars.iv
  %24 = load i8, ptr %23, align 1, !tbaa !4
  %25 = sext i8 %24 to i16
  %26 = mul i16 %22, %25
  %27 = lshr i16 %26, 7
  %28 = trunc i16 %27 to i8
  %29 = add i8 %24, %28
  %30 = getelementptr inbounds nuw i8, ptr %0, i64 %indvars.iv
  store i8 %29, ptr %30, align 1, !tbaa !4
  %indvars.iv.next = add nuw nsw i64 %indvars.iv, 1
  %exitcond.not = icmp eq i64 %indvars.iv.next, %wide.trip.count
  br i1 %exitcond.not, label %._crit_edge, label %8, !llvm.loop !12

._crit_edge:                                      ; preds = %8, %4
  ret void
}